target datalayout = "e-m:e-p270:32:32-p271:32:32-p272:64:64-i64:64-i128:128-f80:128-n8:16:32:64-S128"
target triple = "x86_64-pc-linux-gnu"

%"class.std::__cxx11::basic_string" = type { %"struct.std::__cxx11::basic_string<char>::_Alloc_hider", i64, %union.anon }
%"struct.std::__cxx11::basic_string<char>::_Alloc_hider" = type { ptr }
%union.anon = type { i64, [8 x i8] }

@.str = private unnamed_addr constant [5 x i8] c"none\00", align 1
@.str.1 = private unnamed_addr constant [6 x i8] c"debug\00", align 1
@.str.2 = private unnamed_addr constant [5 x i8] c"info\00", align 1
@.str.3 = private unnamed_addr constant [5 x i8] c"warn\00", align 1
@.str.4 = private unnamed_addr constant [6 x i8] c"error\00", align 1
@.str.5 = private unnamed_addr constant [25 x i8] c"OpenDDLParser: (%5s) %s\0A\00", align 1

; Function Attrs: mustprogress nounwind uwtable
define available_externally noundef ptr @_ZNKSt7__cxx1112basic_stringIcSt11char_traitsIcESaIcEE7_M_dataEv(ptr noundef nonnull align 8 dereferenceable(32) %0) #4 align 2 {
  %2 = alloca ptr, align 8
  store ptr %0, ptr %2, align 8
  %3 = load ptr, ptr %2, align 8
  %4 = getelementptr inbounds nuw %"class.std::__cxx11::basic_string", ptr %3, i32 0, i32 0
  %5 = getelementptr inbounds nuw %"struct.std::__cxx11::basic_string<char>::_Alloc_hider", ptr %4, i32 0, i32 0
  %6 = load ptr, ptr %5, align 8
  ret ptr %6
}

; Function Attrs: mustprogress nounwind uwtable
define available_externally noundef ptr @_ZNKSt7__cxx1112basic_stringIcSt11char_traitsIcESaIcEE5c_strEv(ptr noundef nonnull align 8 dereferenceable(32) %0) #4 align 2 {
  %2 = alloca ptr, align 8
  store ptr %0, ptr %2, align 8
  %3 = load ptr, ptr %2, align 8
  %4 = call noundef ptr @_ZNKSt7__cxx1112basic_stringIcSt11char_traitsIcESaIcEE7_M_dataEv(ptr noundef nonnull align 8 dereferenceable(32) %3)
  ret ptr %4
}

; Function Attrs: mustprogress nounwind uwtable
define hidden void @_ZN10ODDLParser13OpenDDLParser11logToStreamEP8_IO_FILENS_11LogSeverityERKNSt7__cxx1112basic_stringIcSt11char_traitsIcESaIcEEE(ptr noundef %0, i32 noundef %1, ptr noundef nonnull align 8 dereferenceable(32) %2) #4 align 2 {
  %4 = alloca ptr, align 8
  %5 = alloca i32, align 4
  %6 = alloca ptr, align 8
  %7 = alloca ptr, align 8
  store ptr %0, ptr %4, align 8
  store i32 %1, ptr %5, align 4
  store ptr %2, ptr %6, align 8
  %8 = load ptr, ptr %4, align 8
  %9 = icmp ne ptr %8, null
  br i1 %9, label %10, label %22

10:                                               ; preds = %3
  call void @llvm.lifetime.start.p0(i64 8, ptr %7) #3
  store ptr @.str, ptr %7, align 8
  %11 = load i32, ptr %5, align 4
  switch i32 %11, label %16 [
    i32 0, label %12
    i32 1, label %13
    i32 2, label %14
    i32 3, label %15
  ]

12:                                               ; preds = %10
  store ptr @.str.1, ptr %7, align 8
  br label %16

13:                                               ; preds = %10
  store ptr @.str.2, ptr %7, align 8
  br label %16

14:                                               ; preds = %10
  store ptr @.str.3, ptr %7, align 8
  br label %16

15:                                               ; preds = %10
  store ptr @.str.4, ptr %7, align 8
  br label %16

16:                                               ; preds = %10, %15, %14, %13, %12
  %17 = load ptr, ptr %4, align 8
  %18 = load ptr, ptr %7, align 8
  %19 = load ptr, ptr %6, align 8
  %20 = call noundef ptr @_ZNKSt7__cxx1112basic_stringIcSt11char_traitsIcESaIcEE5c_strEv(ptr noundef nonnull align 8 dereferenceable(32) %19) #3
  %21 = call i32 (ptr, ptr, ...) @fprintf(ptr noundef %17, ptr noundef @.str.5, ptr noundef %18, ptr noundef %20) #3
  call void @llvm.lifetime.end.p0(i64 8, ptr %7) #3
  br label %22

22:                                               ; preds = %16, %3
  ret void
}