; Function Attrs: mustprogress nofree nounwind uwtable
define hidden void @_ZN10ODDLParser13OpenDDLParser11logToStreamEP8_IO_FILENS_11LogSeverityERKNSt7__cxx1112basic_stringIcSt11char_traitsIcESaIcEEE(ptr noundef captures(address_is_null) %0, i32 noundef %1, ptr noundef nonnull readonly align 8 captures(none) dereferenceable(32) %2) local_unnamed_addr #10 align 2 {
  %.not = icmp eq ptr %0, null
  br i1 %.not, label %10, label %4

4:                                                ; preds = %3
  %5 = icmp ult i32 %1, 4
  br i1 %5, label %switch.lookup, label %7

switch.lookup:                                    ; preds = %4
  %6 = zext nneg i32 %1 to i64
  %switch.gep = getelementptr inbounds nuw [4 x ptr], ptr @"switch.table._ZNSt17_Function_handlerIFvN10ODDLParser11LogSeverityERKNSt7__cxx1112basic_stringIcSt11char_traitsIcESaIcEEEEZNS0_13OpenDDLParser14StdLogCallbackEP8_IO_FILEE3$_0E9_M_invokeERKSt9_Any_dataOS1_S9_", i64 0, i64 %6
  %switch.load = load ptr, ptr %switch.gep, align 8
  br label %7

7:                                                ; preds = %switch.lookup, %4
  %.0 = phi ptr [ @.str, %4 ], [ %switch.load, %switch.lookup ]
  %8 = load ptr, ptr %2, align 8
  %9 = tail call i32 (ptr, ptr, ...) @fprintf(ptr noundef nonnull %0, ptr noundef nonnull @.str.5, ptr noundef nonnull %.0, ptr noundef %8) #29
  br label %10

10:                                               ; preds = %7, %3
  ret void
}